#include <math.h>
#include <stdio.h>
#include <stdlib.h>
#include <string.h>

int main(int argc, char* argv[])
{
	int n1,n2,i,j,k;
	char str1[50]={'\0'},str2[50]={'\0'};
	scanf("%s%s",&str1,&str2);
	n1=strlen(str1);
	n2=strlen(str2);
	k=0;
    for(i=0;i<n1;i++)
	{
		for(j=0;j<n2;j++)
			if(str1[i]==str2[j])
			{
				k++;
			str1[i]='1';
			str2[j]='1';
			break;
			}
	}
	if(k==n1&&k==n2)
		printf("YES");
	else
		printf("NO");

	return 0;
}

